; ModuleID = '35/1935.c'
source_filename = "35/1935.c"
target datalayout = "e-m:e-p270:32:32-p271:32:32-p272:64:64-i64:64-f80:128-n8:16:32:64-S128"
target triple = "x86_64-pc-linux-gnu"

@.str = private unnamed_addr constant [6 x i8] c"%d,%d\00", align 1
@.str.1 = private unnamed_addr constant [3 x i8] c"%d\00", align 1
@.str.2 = private unnamed_addr constant [7 x i8] c"%d+%d\0A\00", align 1
@.str.3 = private unnamed_addr constant [4 x i8] c"No\0A\00", align 1

; Function Attrs: noinline nounwind uwtable
define dso_local i32 @main() #0 {
  %1 = alloca i32, align 4
  %2 = alloca [10 x [10 x i32]], align 16
  %3 = alloca [10 x [2 x i32]], align 16
  %4 = alloca i32, align 4
  %5 = alloca i32, align 4
  %6 = alloca i32, align 4
  %7 = alloca i32, align 4
  %8 = alloca i32, align 4
  %9 = alloca i32, align 4
  %10 = alloca i32, align 4
  %11 = alloca i32, align 4
  store i32 0, i32* %1, align 4
  %12 = call i32 (i8*, ...) @__isoc99_scanf(i8* getelementptr inbounds ([6 x i8], [6 x i8]* @.str, i64 0, i64 0), i32* %7, i32* %6)
  store i32 0, i32* %4, align 4
  br label %13

13:                                               ; preds = %34, %0
  %14 = load i32, i32* %4, align 4
  %15 = load i32, i32* %7, align 4
  %16 = icmp slt i32 %14, %15
  br i1 %16, label %17, label %37

17:                                               ; preds = %13
  store i32 0, i32* %5, align 4
  br label %18

18:                                               ; preds = %30, %17
  %19 = load i32, i32* %5, align 4
  %20 = load i32, i32* %6, align 4
  %21 = icmp slt i32 %19, %20
  br i1 %21, label %22, label %33

22:                                               ; preds = %18
  %23 = load i32, i32* %4, align 4
  %24 = sext i32 %23 to i64
  %25 = getelementptr inbounds [10 x [10 x i32]], [10 x [10 x i32]]* %2, i64 0, i64 %24
  %26 = load i32, i32* %5, align 4
  %27 = sext i32 %26 to i64
  %28 = getelementptr inbounds [10 x i32], [10 x i32]* %25, i64 0, i64 %27
  %29 = call i32 (i8*, ...) @__isoc99_scanf(i8* getelementptr inbounds ([3 x i8], [3 x i8]* @.str.1, i64 0, i64 0), i32* %28)
  br label %30

30:                                               ; preds = %22
  %31 = load i32, i32* %5, align 4
  %32 = add nsw i32 %31, 1
  store i32 %32, i32* %5, align 4
  br label %18

33:                                               ; preds = %18
  br label %34

34:                                               ; preds = %33
  %35 = load i32, i32* %4, align 4
  %36 = add nsw i32 %35, 1
  store i32 %36, i32* %4, align 4
  br label %13

37:                                               ; preds = %13
  store i32 0, i32* %4, align 4
  br label %38

38:                                               ; preds = %86, %37
  %39 = load i32, i32* %4, align 4
  %40 = load i32, i32* %7, align 4
  %41 = icmp slt i32 %39, %40
  br i1 %41, label %42, label %89

42:                                               ; preds = %38
  %43 = load i32, i32* %4, align 4
  %44 = sext i32 %43 to i64
  %45 = getelementptr inbounds [10 x [10 x i32]], [10 x [10 x i32]]* %2, i64 0, i64 %44
  %46 = getelementptr inbounds [10 x i32], [10 x i32]* %45, i64 0, i64 0
  %47 = load i32, i32* %46, align 8
  store i32 %47, i32* %11, align 4
  store i32 0, i32* %5, align 4
  br label %48

48:                                               ; preds = %72, %42
  %49 = load i32, i32* %5, align 4
  %50 = load i32, i32* %6, align 4
  %51 = icmp slt i32 %49, %50
  br i1 %51, label %52, label %75

52:                                               ; preds = %48
  %53 = load i32, i32* %4, align 4
  %54 = sext i32 %53 to i64
  %55 = getelementptr inbounds [10 x [10 x i32]], [10 x [10 x i32]]* %2, i64 0, i64 %54
  %56 = load i32, i32* %5, align 4
  %57 = sext i32 %56 to i64
  %58 = getelementptr inbounds [10 x i32], [10 x i32]* %55, i64 0, i64 %57
  %59 = load i32, i32* %58, align 4
  %60 = load i32, i32* %11, align 4
  %61 = icmp sge i32 %59, %60
  br i1 %61, label %62, label %71

62:                                               ; preds = %52
  %63 = load i32, i32* %4, align 4
  %64 = sext i32 %63 to i64
  %65 = getelementptr inbounds [10 x [10 x i32]], [10 x [10 x i32]]* %2, i64 0, i64 %64
  %66 = load i32, i32* %5, align 4
  %67 = sext i32 %66 to i64
  %68 = getelementptr inbounds [10 x i32], [10 x i32]* %65, i64 0, i64 %67
  %69 = load i32, i32* %68, align 4
  store i32 %69, i32* %11, align 4
  %70 = load i32, i32* %5, align 4
  store i32 %70, i32* %8, align 4
  br label %71

71:                                               ; preds = %62, %52
  br label %72

72:                                               ; preds = %71
  %73 = load i32, i32* %5, align 4
  %74 = add nsw i32 %73, 1
  store i32 %74, i32* %5, align 4
  br label %48

75:                                               ; preds = %48
  %76 = load i32, i32* %11, align 4
  %77 = load i32, i32* %4, align 4
  %78 = sext i32 %77 to i64
  %79 = getelementptr inbounds [10 x [2 x i32]], [10 x [2 x i32]]* %3, i64 0, i64 %78
  %80 = getelementptr inbounds [2 x i32], [2 x i32]* %79, i64 0, i64 0
  store i32 %76, i32* %80, align 8
  %81 = load i32, i32* %8, align 4
  %82 = load i32, i32* %4, align 4
  %83 = sext i32 %82 to i64
  %84 = getelementptr inbounds [10 x [2 x i32]], [10 x [2 x i32]]* %3, i64 0, i64 %83
  %85 = getelementptr inbounds [2 x i32], [2 x i32]* %84, i64 0, i64 1
  store i32 %81, i32* %85, align 4
  br label %86

86:                                               ; preds = %75
  %87 = load i32, i32* %4, align 4
  %88 = add nsw i32 %87, 1
  store i32 %88, i32* %4, align 4
  br label %38

89:                                               ; preds = %38
  store i32 0, i32* %10, align 4
  store i32 0, i32* %4, align 4
  br label %90

90:                                               ; preds = %134, %89
  %91 = load i32, i32* %4, align 4
  %92 = load i32, i32* %7, align 4
  %93 = icmp slt i32 %91, %92
  br i1 %93, label %94, label %137

94:                                               ; preds = %90
  store i32 0, i32* %9, align 4
  store i32 0, i32* %5, align 4
  br label %95

95:                                               ; preds = %119, %94
  %96 = load i32, i32* %5, align 4
  %97 = load i32, i32* %7, align 4
  %98 = icmp slt i32 %96, %97
  br i1 %98, label %99, label %122

99:                                               ; preds = %95
  %100 = load i32, i32* %4, align 4
  %101 = sext i32 %100 to i64
  %102 = getelementptr inbounds [10 x [2 x i32]], [10 x [2 x i32]]* %3, i64 0, i64 %101
  %103 = getelementptr inbounds [2 x i32], [2 x i32]* %102, i64 0, i64 0
  %104 = load i32, i32* %103, align 8
  %105 = load i32, i32* %5, align 4
  %106 = sext i32 %105 to i64
  %107 = getelementptr inbounds [10 x [10 x i32]], [10 x [10 x i32]]* %2, i64 0, i64 %106
  %108 = load i32, i32* %4, align 4
  %109 = sext i32 %108 to i64
  %110 = getelementptr inbounds [10 x [2 x i32]], [10 x [2 x i32]]* %3, i64 0, i64 %109
  %111 = getelementptr inbounds [2 x i32], [2 x i32]* %110, i64 0, i64 1
  %112 = load i32, i32* %111, align 4
  %113 = sext i32 %112 to i64
  %114 = getelementptr inbounds [10 x i32], [10 x i32]* %107, i64 0, i64 %113
  %115 = load i32, i32* %114, align 4
  %116 = icmp sgt i32 %104, %115
  br i1 %116, label %117, label %118

117:                                              ; preds = %99
  store i32 1, i32* %9, align 4
  br label %122

118:                                              ; preds = %99
  br label %119

119:                                              ; preds = %118
  %120 = load i32, i32* %5, align 4
  %121 = add nsw i32 %120, 1
  store i32 %121, i32* %5, align 4
  br label %95

122:                                              ; preds = %117, %95
  %123 = load i32, i32* %9, align 4
  %124 = icmp eq i32 %123, 0
  br i1 %124, label %125, label %133

125:                                              ; preds = %122
  %126 = load i32, i32* %4, align 4
  %127 = load i32, i32* %4, align 4
  %128 = sext i32 %127 to i64
  %129 = getelementptr inbounds [10 x [2 x i32]], [10 x [2 x i32]]* %3, i64 0, i64 %128
  %130 = getelementptr inbounds [2 x i32], [2 x i32]* %129, i64 0, i64 1
  %131 = load i32, i32* %130, align 4
  %132 = call i32 (i8*, ...) @printf(i8* getelementptr inbounds ([7 x i8], [7 x i8]* @.str.2, i64 0, i64 0), i32 %126, i32 %131)
  store i32 1, i32* %10, align 4
  br label %137

133:                                              ; preds = %122
  br label %134

134:                                              ; preds = %133
  %135 = load i32, i32* %4, align 4
  %136 = add nsw i32 %135, 1
  store i32 %136, i32* %4, align 4
  br label %90

137:                                              ; preds = %125, %90
  %138 = load i32, i32* %10, align 4
  %139 = icmp eq i32 %138, 0
  br i1 %139, label %140, label %142

140:                                              ; preds = %137
  %141 = call i32 (i8*, ...) @printf(i8* getelementptr inbounds ([4 x i8], [4 x i8]* @.str.3, i64 0, i64 0))
  br label %142

142:                                              ; preds = %140, %137
  %143 = load i32, i32* %1, align 4
  ret i32 %143
}

declare dso_local i32 @__isoc99_scanf(i8*, ...) #1

declare dso_local i32 @printf(i8*, ...) #1


!llvm.module.flags = !{!0}
!llvm.ident = !{!1}

!0 = !{i32 1, !"wchar_size", i32 4}
!1 = !{!"clang version 10.0.0-4ubuntu1 "}
